#include <math.h>
#include <stdio.h>
#include <stdlib.h>
#include <string.h>

void main()
{
	int i,j,k,t,r,n=0;
	char a[60],b[60],c[60]={0};
	scanf("%s %s",a,b);
	r=strlen(a);
	t=strlen(b);
	for(i=0;i<t && n<1;i++)
	{
		if(b[i]==a[0])
		{
			k=i;
		   for(j=0;j<r;j++,k++)	
			   c[j]=b[k];
		   if(strcmp(c,a)==0)
		   {
			   n=n+1;
			   printf("%d\n",i);
		   }
		}
	}
}
               
