; ModuleID = 'source-C-CXX/44/1530.c'
source_filename = "source-C-CXX/44/1530.c"
target datalayout = "e-m:e-p270:32:32-p271:32:32-p272:64:64-i64:64-f80:128-n8:16:32:64-S128"
target triple = "x86_64-pc-linux-gnu"

@.str = private unnamed_addr constant [6 x i8] c"%s %s\00", align 1
@.str.1 = private unnamed_addr constant [4 x i8] c"%d\0A\00", align 1

; Function Attrs: nofree nounwind sspstrong uwtable
define dso_local void @main() local_unnamed_addr #0 {
  %1 = alloca [60 x i8], align 16
  %2 = alloca [60 x i8], align 16
  %3 = alloca [60 x i8], align 16
  %4 = getelementptr inbounds [60 x i8], [60 x i8]* %3, i64 0, i64 0
  %5 = getelementptr inbounds [60 x i8], [60 x i8]* %1, i64 0, i64 0
  call void @llvm.lifetime.start.p0i8(i64 60, i8* nonnull %5) #6
  %6 = getelementptr inbounds [60 x i8], [60 x i8]* %2, i64 0, i64 0
  call void @llvm.lifetime.start.p0i8(i64 60, i8* nonnull %6) #6
  %7 = getelementptr inbounds [60 x i8], [60 x i8]* %3, i64 0, i64 0
  call void @llvm.lifetime.start.p0i8(i64 60, i8* nonnull %7) #6
  call void @llvm.memset.p0i8.i64(i8* noundef nonnull align 16 dereferenceable(60) %7, i8 0, i64 60, i1 false)
  %8 = call i32 (i8*, ...) @__isoc99_scanf(i8* getelementptr inbounds ([6 x i8], [6 x i8]* @.str, i64 0, i64 0), i8* nonnull %5, i8* nonnull %6)
  %9 = call i64 @strlen(i8* noundef nonnull %5) #7
  %10 = call i64 @strlen(i8* noundef nonnull %6) #7
  %11 = trunc i64 %10 to i32
  %12 = icmp sgt i32 %11, 0
  br i1 %12, label %13, label %51

13:                                               ; preds = %0
  %14 = trunc i64 %9 to i32
  %15 = icmp sgt i32 %14, 0
  br i1 %15, label %20, label %16

16:                                               ; preds = %13
  %17 = shl i64 %10, 32
  %18 = ashr exact i64 %17, 32
  %19 = load i8, i8* %5, align 16, !tbaa !5
  br label %36

20:                                               ; preds = %13
  %21 = and i64 %9, 4294967295
  %22 = shl i64 %10, 32
  %23 = ashr exact i64 %22, 32
  %24 = load i8, i8* %5, align 16, !tbaa !5
  br label %25

25:                                               ; preds = %20, %33
  %26 = phi i64 [ 0, %20 ], [ %34, %33 ]
  %27 = getelementptr [60 x i8], [60 x i8]* %2, i64 0, i64 %26
  %28 = load i8, i8* %27, align 1, !tbaa !5
  %29 = icmp eq i8 %28, %24
  br i1 %29, label %30, label %33

30:                                               ; preds = %25
  call void @llvm.memcpy.p0i8.p0i8.i64(i8* nonnull align 16 %4, i8* nonnull align 1 %27, i64 %21, i1 false)
  %31 = call i32 @strcmp(i8* noundef nonnull %7, i8* noundef nonnull %5) #7
  %32 = icmp eq i32 %31, 0
  br i1 %32, label %47, label %33

33:                                               ; preds = %30, %25
  %34 = add nuw nsw i64 %26, 1
  %35 = icmp slt i64 %34, %23
  br i1 %35, label %25, label %51, !llvm.loop !8

36:                                               ; preds = %16, %44
  %37 = phi i64 [ 0, %16 ], [ %45, %44 ]
  %38 = getelementptr inbounds [60 x i8], [60 x i8]* %2, i64 0, i64 %37
  %39 = load i8, i8* %38, align 1, !tbaa !5
  %40 = icmp eq i8 %39, %19
  br i1 %40, label %41, label %44

41:                                               ; preds = %36
  %42 = call i32 @strcmp(i8* noundef nonnull %7, i8* noundef nonnull %5) #7
  %43 = icmp eq i32 %42, 0
  br i1 %43, label %47, label %44

44:                                               ; preds = %36, %41
  %45 = add nuw nsw i64 %37, 1
  %46 = icmp slt i64 %45, %18
  br i1 %46, label %36, label %51, !llvm.loop !8

47:                                               ; preds = %41, %30
  %48 = phi i64 [ %26, %30 ], [ %37, %41 ]
  %49 = trunc i64 %48 to i32
  %50 = call i32 (i8*, ...) @printf(i8* nonnull dereferenceable(1) getelementptr inbounds ([4 x i8], [4 x i8]* @.str.1, i64 0, i64 0), i32 %49)
  br label %51

51:                                               ; preds = %44, %33, %47, %0
  call void @llvm.lifetime.end.p0i8(i64 60, i8* nonnull %7) #6
  call void @llvm.lifetime.end.p0i8(i64 60, i8* nonnull %6) #6
  call void @llvm.lifetime.end.p0i8(i64 60, i8* nonnull %5) #6
  ret void
}

; Function Attrs: argmemonly mustprogress nofree nosync nounwind willreturn
declare void @llvm.lifetime.start.p0i8(i64 immarg, i8* nocapture) #1

; Function Attrs: argmemonly mustprogress nofree nounwind willreturn writeonly
declare void @llvm.memset.p0i8.i64(i8* nocapture writeonly, i8, i64, i1 immarg) #2

; Function Attrs: nofree nounwind
declare noundef i32 @__isoc99_scanf(i8* nocapture noundef readonly, ...) local_unnamed_addr #3

; Function Attrs: argmemonly mustprogress nofree nounwind readonly willreturn
declare i64 @strlen(i8* nocapture) local_unnamed_addr #4

; Function Attrs: argmemonly mustprogress nofree nounwind readonly willreturn
declare i32 @strcmp(i8* nocapture, i8* nocapture) local_unnamed_addr #4

; Function Attrs: nofree nounwind
declare noundef i32 @printf(i8* nocapture noundef readonly, ...) local_unnamed_addr #3

; Function Attrs: argmemonly mustprogress nofree nosync nounwind willreturn
declare void @llvm.lifetime.end.p0i8(i64 immarg, i8* nocapture) #1

; Function Attrs: argmemonly nofree nounwind willreturn
declare void @llvm.memcpy.p0i8.p0i8.i64(i8* noalias nocapture writeonly, i8* noalias nocapture readonly, i64, i1 immarg) #5


!llvm.module.flags = !{!0, !1, !2, !3}
!llvm.ident = !{!4}

!0 = !{i32 1, !"wchar_size", i32 4}
!1 = !{i32 7, !"PIC Level", i32 2}
!2 = !{i32 7, !"PIE Level", i32 2}
!3 = !{i32 7, !"uwtable", i32 1}
!4 = !{!"clang version 13.0.0"}
!5 = !{!6, !6, i64 0}
!6 = !{!"omnipotent char", !7, i64 0}
!7 = !{!"Simple C/C++ TBAA"}
!8 = distinct !{!8, !9}
!9 = !{!"llvm.loop.mustprogress"}
